target datalayout = "e-m:e-p270:32:32-p271:32:32-p272:64:64-i64:64-i128:128-f80:128-n8:16:32:64-S128"
target triple = "x86_64-pc-linux-gnu"

; Function Attrs: nounwind uwtable
define internal void @decorrelate_33bps(i32 noundef %0, ptr noundef %1, ptr noundef %2, i32 noundef %3) #1 {
  %5 = alloca i32, align 4
  %6 = alloca ptr, align 8
  %7 = alloca ptr, align 8
  %8 = alloca i32, align 4
  %9 = alloca i32, align 4
  %10 = alloca i64, align 8
  %11 = alloca i64, align 8
  store i32 %0, ptr %5, align 4, !tbaa !39
  store ptr %1, ptr %6, align 8, !tbaa !84
  store ptr %2, ptr %7, align 8, !tbaa !86
  store i32 %3, ptr %8, align 4, !tbaa !39
  call void @llvm.lifetime.start.p0(i64 4, ptr %9) #11
  %12 = load i32, ptr %5, align 4, !tbaa !39
  %13 = icmp eq i32 %12, 1
  br i1 %13, label %14, label %45

14:                                               ; preds = %4
  store i32 0, ptr %9, align 4, !tbaa !39
  br label %15

15:                                               ; preds = %41, %14
  %16 = load i32, ptr %9, align 4, !tbaa !39
  %17 = load i32, ptr %8, align 4, !tbaa !39
  %18 = icmp slt i32 %16, %17
  br i1 %18, label %19, label %44

19:                                               ; preds = %15
  %20 = load ptr, ptr %6, align 8, !tbaa !84
  %21 = getelementptr inbounds ptr, ptr %20, i64 0
  %22 = load ptr, ptr %21, align 8, !tbaa !45
  %23 = load i32, ptr %9, align 4, !tbaa !39
  %24 = sext i32 %23 to i64
  %25 = getelementptr inbounds i32, ptr %22, i64 %24
  %26 = load i32, ptr %25, align 4, !tbaa !39
  %27 = sext i32 %26 to i64
  %28 = load ptr, ptr %7, align 8, !tbaa !86
  %29 = load i32, ptr %9, align 4, !tbaa !39
  %30 = sext i32 %29 to i64
  %31 = getelementptr inbounds i64, ptr %28, i64 %30
  %32 = load i64, ptr %31, align 8, !tbaa !87
  %33 = sub i64 %27, %32
  %34 = trunc i64 %33 to i32
  %35 = load ptr, ptr %6, align 8, !tbaa !84
  %36 = getelementptr inbounds ptr, ptr %35, i64 1
  %37 = load ptr, ptr %36, align 8, !tbaa !45
  %38 = load i32, ptr %9, align 4, !tbaa !39
  %39 = sext i32 %38 to i64
  %40 = getelementptr inbounds i32, ptr %37, i64 %39
  store i32 %34, ptr %40, align 4, !tbaa !39
  br label %41

41:                                               ; preds = %19
  %42 = load i32, ptr %9, align 4, !tbaa !39
  %43 = add nsw i32 %42, 1
  store i32 %43, ptr %9, align 4, !tbaa !39
  br label %15, !llvm.loop !88

44:                                               ; preds = %15
  br label %129

45:                                               ; preds = %4
  %46 = load i32, ptr %5, align 4, !tbaa !39
  %47 = icmp eq i32 %46, 2
  br i1 %47, label %48, label %79

48:                                               ; preds = %45
  store i32 0, ptr %9, align 4, !tbaa !39
  br label %49

49:                                               ; preds = %75, %48
  %50 = load i32, ptr %9, align 4, !tbaa !39
  %51 = load i32, ptr %8, align 4, !tbaa !39
  %52 = icmp slt i32 %50, %51
  br i1 %52, label %53, label %78

53:                                               ; preds = %49
  %54 = load ptr, ptr %6, align 8, !tbaa !84
  %55 = getelementptr inbounds ptr, ptr %54, i64 1
  %56 = load ptr, ptr %55, align 8, !tbaa !45
  %57 = load i32, ptr %9, align 4, !tbaa !39
  %58 = sext i32 %57 to i64
  %59 = getelementptr inbounds i32, ptr %56, i64 %58
  %60 = load i32, ptr %59, align 4, !tbaa !39
  %61 = sext i32 %60 to i64
  %62 = load ptr, ptr %7, align 8, !tbaa !86
  %63 = load i32, ptr %9, align 4, !tbaa !39
  %64 = sext i32 %63 to i64
  %65 = getelementptr inbounds i64, ptr %62, i64 %64
  %66 = load i64, ptr %65, align 8, !tbaa !87
  %67 = add i64 %61, %66
  %68 = trunc i64 %67 to i32
  %69 = load ptr, ptr %6, align 8, !tbaa !84
  %70 = getelementptr inbounds ptr, ptr %69, i64 0
  %71 = load ptr, ptr %70, align 8, !tbaa !45
  %72 = load i32, ptr %9, align 4, !tbaa !39
  %73 = sext i32 %72 to i64
  %74 = getelementptr inbounds i32, ptr %71, i64 %73
  store i32 %68, ptr %74, align 4, !tbaa !39
  br label %75

75:                                               ; preds = %53
  %76 = load i32, ptr %9, align 4, !tbaa !39
  %77 = add nsw i32 %76, 1
  store i32 %77, ptr %9, align 4, !tbaa !39
  br label %49, !llvm.loop !89

78:                                               ; preds = %49
  br label %128

79:                                               ; preds = %45
  %80 = load i32, ptr %5, align 4, !tbaa !39
  %81 = icmp eq i32 %80, 3
  br i1 %81, label %82, label %127

82:                                               ; preds = %79
  store i32 0, ptr %9, align 4, !tbaa !39
  br label %83

83:                                               ; preds = %123, %82
  %84 = load i32, ptr %9, align 4, !tbaa !39
  %85 = load i32, ptr %8, align 4, !tbaa !39
  %86 = icmp slt i32 %84, %85
  br i1 %86, label %87, label %126

87:                                               ; preds = %83
  call void @llvm.lifetime.start.p0(i64 8, ptr %10) #11
  %88 = load ptr, ptr %6, align 8, !tbaa !84
  %89 = getelementptr inbounds ptr, ptr %88, i64 0
  %90 = load ptr, ptr %89, align 8, !tbaa !45
  %91 = load i32, ptr %9, align 4, !tbaa !39
  %92 = sext i32 %91 to i64
  %93 = getelementptr inbounds i32, ptr %90, i64 %92
  %94 = load i32, ptr %93, align 4, !tbaa !39
  %95 = sext i32 %94 to i64
  store i64 %95, ptr %10, align 8, !tbaa !87
  call void @llvm.lifetime.start.p0(i64 8, ptr %11) #11
  %96 = load ptr, ptr %7, align 8, !tbaa !86
  %97 = load i32, ptr %9, align 4, !tbaa !39
  %98 = sext i32 %97 to i64
  %99 = getelementptr inbounds i64, ptr %96, i64 %98
  %100 = load i64, ptr %99, align 8, !tbaa !87
  store i64 %100, ptr %11, align 8, !tbaa !87
  %101 = load i64, ptr %11, align 8, !tbaa !87
  %102 = ashr i64 %101, 1
  %103 = load i64, ptr %10, align 8, !tbaa !87
  %104 = sub i64 %103, %102
  store i64 %104, ptr %10, align 8, !tbaa !87
  %105 = load i64, ptr %10, align 8, !tbaa !87
  %106 = load i64, ptr %11, align 8, !tbaa !87
  %107 = add i64 %105, %106
  %108 = trunc i64 %107 to i32
  %109 = load ptr, ptr %6, align 8, !tbaa !84
  %110 = getelementptr inbounds ptr, ptr %109, i64 0
  %111 = load ptr, ptr %110, align 8, !tbaa !45
  %112 = load i32, ptr %9, align 4, !tbaa !39
  %113 = sext i32 %112 to i64
  %114 = getelementptr inbounds i32, ptr %111, i64 %113
  store i32 %108, ptr %114, align 4, !tbaa !39
  %115 = load i64, ptr %10, align 8, !tbaa !87
  %116 = trunc i64 %115 to i32
  %117 = load ptr, ptr %6, align 8, !tbaa !84
  %118 = getelementptr inbounds ptr, ptr %117, i64 1
  %119 = load ptr, ptr %118, align 8, !tbaa !45
  %120 = load i32, ptr %9, align 4, !tbaa !39
  %121 = sext i32 %120 to i64
  %122 = getelementptr inbounds i32, ptr %119, i64 %121
  store i32 %116, ptr %122, align 4, !tbaa !39
  call void @llvm.lifetime.end.p0(i64 8, ptr %11) #11
  call void @llvm.lifetime.end.p0(i64 8, ptr %10) #11
  br label %123

123:                                              ; preds = %87
  %124 = load i32, ptr %9, align 4, !tbaa !39
  %125 = add nsw i32 %124, 1
  store i32 %125, ptr %9, align 4, !tbaa !39
  br label %83, !llvm.loop !90

126:                                              ; preds = %83
  br label %127

127:                                              ; preds = %126, %79
  br label %128

128:                                              ; preds = %127, %78
  br label %129

129:                                              ; preds = %128, %44
  call void @llvm.lifetime.end.p0(i64 4, ptr %9) #11
  ret void
}