; Function Attrs: nofree norecurse nosync nounwind memory(readwrite, inaccessiblemem: none) uwtable
define internal fastcc void @decorrelate_33bps(i32 noundef range(i32 1, -2147483648) %0, ptr noundef readonly captures(none) %1, ptr noundef readonly captures(none) %2, i32 noundef %3) unnamed_addr #6 {
  switch i32 %0, label %.loopexit [
    i32 1, label %.preheader
    i32 2, label %.preheader37
    i32 3, label %.preheader39
  ]

.preheader39:                                     ; preds = %4
  %5 = icmp sgt i32 %3, 0
  br i1 %5, label %.lr.ph, label %.loopexit

.lr.ph:                                           ; preds = %.preheader39
  %6 = load ptr, ptr %1, align 8, !tbaa !66
  %7 = getelementptr inbounds nuw i8, ptr %1, i64 8
  %8 = load ptr, ptr %7, align 8, !tbaa !66
  %wide.trip.count = zext nneg i32 %3 to i64
  br label %33

.preheader37:                                     ; preds = %4
  %9 = icmp sgt i32 %3, 0
  br i1 %9, label %.lr.ph43, label %.loopexit

.lr.ph43:                                         ; preds = %.preheader37
  %10 = getelementptr inbounds nuw i8, ptr %1, i64 8
  %11 = load ptr, ptr %10, align 8, !tbaa !66
  %12 = load ptr, ptr %1, align 8, !tbaa !66
  %wide.trip.count52 = zext nneg i32 %3 to i64
  br label %25

.preheader:                                       ; preds = %4
  %13 = icmp sgt i32 %3, 0
  br i1 %13, label %.lr.ph45, label %.loopexit

.lr.ph45:                                         ; preds = %.preheader
  %14 = load ptr, ptr %1, align 8, !tbaa !66
  %15 = getelementptr inbounds nuw i8, ptr %1, i64 8
  %16 = load ptr, ptr %15, align 8, !tbaa !66
  %wide.trip.count57 = zext nneg i32 %3 to i64
  br label %17

17:                                               ; preds = %.lr.ph45, %17
  %indvars.iv54 = phi i64 [ 0, %.lr.ph45 ], [ %indvars.iv.next55, %17 ]
  %18 = getelementptr inbounds nuw i32, ptr %14, i64 %indvars.iv54
  %19 = load i32, ptr %18, align 4, !tbaa !45
  %20 = getelementptr inbounds nuw i64, ptr %2, i64 %indvars.iv54
  %21 = load i64, ptr %20, align 8, !tbaa !70
  %22 = trunc i64 %21 to i32
  %23 = sub i32 %19, %22
  %24 = getelementptr inbounds nuw i32, ptr %16, i64 %indvars.iv54
  store i32 %23, ptr %24, align 4, !tbaa !45
  %indvars.iv.next55 = add nuw nsw i64 %indvars.iv54, 1
  %exitcond58.not = icmp eq i64 %indvars.iv.next55, %wide.trip.count57
  br i1 %exitcond58.not, label %.loopexit, label %17, !llvm.loop !93

25:                                               ; preds = %.lr.ph43, %25
  %indvars.iv49 = phi i64 [ 0, %.lr.ph43 ], [ %indvars.iv.next50, %25 ]
  %26 = getelementptr inbounds nuw i32, ptr %11, i64 %indvars.iv49
  %27 = load i32, ptr %26, align 4, !tbaa !45
  %28 = getelementptr inbounds nuw i64, ptr %2, i64 %indvars.iv49
  %29 = load i64, ptr %28, align 8, !tbaa !70
  %30 = trunc i64 %29 to i32
  %31 = add i32 %27, %30
  %32 = getelementptr inbounds nuw i32, ptr %12, i64 %indvars.iv49
  store i32 %31, ptr %32, align 4, !tbaa !45
  %indvars.iv.next50 = add nuw nsw i64 %indvars.iv49, 1
  %exitcond53.not = icmp eq i64 %indvars.iv.next50, %wide.trip.count52
  br i1 %exitcond53.not, label %.loopexit, label %25, !llvm.loop !94

33:                                               ; preds = %.lr.ph, %33
  %indvars.iv = phi i64 [ 0, %.lr.ph ], [ %indvars.iv.next, %33 ]
  %34 = getelementptr inbounds nuw i32, ptr %6, i64 %indvars.iv
  %35 = load i32, ptr %34, align 4, !tbaa !45
  %36 = zext i32 %35 to i64
  %37 = getelementptr inbounds nuw i64, ptr %2, i64 %indvars.iv
  %38 = load i64, ptr %37, align 8, !tbaa !70
  %39 = ashr i64 %38, 1
  %40 = sub nsw i64 %36, %39
  %41 = add i64 %40, %38
  %42 = trunc i64 %41 to i32
  store i32 %42, ptr %34, align 4, !tbaa !45
  %43 = trunc i64 %40 to i32
  %44 = getelementptr inbounds nuw i32, ptr %8, i64 %indvars.iv
  store i32 %43, ptr %44, align 4, !tbaa !45
  %indvars.iv.next = add nuw nsw i64 %indvars.iv, 1
  %exitcond.not = icmp eq i64 %indvars.iv.next, %wide.trip.count
  br i1 %exitcond.not, label %.loopexit, label %33, !llvm.loop !95

.loopexit:                                        ; preds = %33, %25, %17, %.preheader39, %.preheader37, %.preheader, %4
  ret void
}